target datalayout = "e-m:e-p270:32:32-p271:32:32-p272:64:64-i64:64-i128:128-f80:128-n8:16:32:64-S128"
target triple = "x86_64-pc-linux-gnu"

%struct.AVProbeData = type { ptr, ptr, i32, ptr }

; Function Attrs: nounwind uwtable
define internal i32 @wv_probe(ptr noundef %0) #0 {
  %2 = alloca i32, align 4
  %3 = alloca ptr, align 8
  store ptr %0, ptr %3, align 8, !tbaa !4
  %4 = load ptr, ptr %3, align 8, !tbaa !4
  %5 = getelementptr inbounds nuw %struct.AVProbeData, ptr %4, i32 0, i32 2
  %6 = load i32, ptr %5, align 8, !tbaa !9
  %7 = icmp sle i32 %6, 32
  br i1 %7, label %8, label %9

8:                                                ; preds = %1
  store i32 0, ptr %2, align 4
  br label %48

9:                                                ; preds = %1
  %10 = load ptr, ptr %3, align 8, !tbaa !4
  %11 = getelementptr inbounds nuw %struct.AVProbeData, ptr %10, i32 0, i32 1
  %12 = load ptr, ptr %11, align 8, !tbaa !13
  %13 = getelementptr inbounds i8, ptr %12, i64 0
  %14 = load i32, ptr %13, align 1, !tbaa !14
  %15 = icmp eq i32 %14, 1802532471
  br i1 %15, label %16, label %47

16:                                               ; preds = %9
  %17 = load ptr, ptr %3, align 8, !tbaa !4
  %18 = getelementptr inbounds nuw %struct.AVProbeData, ptr %17, i32 0, i32 1
  %19 = load ptr, ptr %18, align 8, !tbaa !13
  %20 = getelementptr inbounds i8, ptr %19, i64 4
  %21 = load i32, ptr %20, align 1, !tbaa !14
  %22 = icmp uge i32 %21, 24
  br i1 %22, label %23, label %47

23:                                               ; preds = %16
  %24 = load ptr, ptr %3, align 8, !tbaa !4
  %25 = getelementptr inbounds nuw %struct.AVProbeData, ptr %24, i32 0, i32 1
  %26 = load ptr, ptr %25, align 8, !tbaa !13
  %27 = getelementptr inbounds i8, ptr %26, i64 4
  %28 = load i32, ptr %27, align 1, !tbaa !14
  %29 = icmp ule i32 %28, 1048576
  br i1 %29, label %30, label %47

30:                                               ; preds = %23
  %31 = load ptr, ptr %3, align 8, !tbaa !4
  %32 = getelementptr inbounds nuw %struct.AVProbeData, ptr %31, i32 0, i32 1
  %33 = load ptr, ptr %32, align 8, !tbaa !13
  %34 = getelementptr inbounds i8, ptr %33, i64 8
  %35 = load i16, ptr %34, align 1, !tbaa !14
  %36 = zext i16 %35 to i32
  %37 = icmp sge i32 %36, 1026
  br i1 %37, label %38, label %47

38:                                               ; preds = %30
  %39 = load ptr, ptr %3, align 8, !tbaa !4
  %40 = getelementptr inbounds nuw %struct.AVProbeData, ptr %39, i32 0, i32 1
  %41 = load ptr, ptr %40, align 8, !tbaa !13
  %42 = getelementptr inbounds i8, ptr %41, i64 8
  %43 = load i16, ptr %42, align 1, !tbaa !14
  %44 = zext i16 %43 to i32
  %45 = icmp sle i32 %44, 1040
  br i1 %45, label %46, label %47

46:                                               ; preds = %38
  store i32 100, ptr %2, align 4
  br label %48

47:                                               ; preds = %38, %30, %23, %16, %9
  store i32 0, ptr %2, align 4
  br label %48

48:                                               ; preds = %47, %46, %8
  %49 = load i32, ptr %2, align 4
  ret i32 %49
}