; Function Attrs: mustprogress nofree norecurse nosync nounwind willreturn memory(read, inaccessiblemem: none) uwtable
define internal range(i32 0, 101) i32 @wv_probe(ptr noundef readonly captures(none) %0) #0 {
  %2 = getelementptr inbounds nuw i8, ptr %0, i64 16
  %3 = load i32, ptr %2, align 8, !tbaa !4
  %4 = icmp slt i32 %3, 33
  br i1 %4, label %19, label %5

5:                                                ; preds = %1
  %6 = getelementptr inbounds nuw i8, ptr %0, i64 8
  %7 = load ptr, ptr %6, align 8, !tbaa !11
  %8 = load i32, ptr %7, align 1, !tbaa !12
  %9 = icmp eq i32 %8, 1802532471
  br i1 %9, label %10, label %18

10:                                               ; preds = %5
  %11 = getelementptr inbounds nuw i8, ptr %7, i64 4
  %12 = load i32, ptr %11, align 1, !tbaa !12
  %13 = add i32 %12, -24
  %or.cond = icmp ult i32 %13, 1048553
  br i1 %or.cond, label %14, label %18

14:                                               ; preds = %10
  %15 = getelementptr inbounds nuw i8, ptr %7, i64 8
  %16 = load i16, ptr %15, align 1, !tbaa !12
  %17 = add i16 %16, -1026
  %or.cond8 = icmp ult i16 %17, 15
  br i1 %or.cond8, label %19, label %18

18:                                               ; preds = %14, %10, %5
  br label %19

19:                                               ; preds = %14, %1, %18
  %.0 = phi i32 [ 0, %18 ], [ 0, %1 ], [ 100, %14 ]
  ret i32 %.0
}